; Function Attrs: nounwind uwtable
define void @OPENSSL_thread_stop() local_unnamed_addr #0 {
  %1 = load i64, ptr @destructor_key, align 8, !tbaa !17
  %.not = icmp eq i64 %1, -1
  br i1 %.not, label %28, label %2

2:                                                ; preds = %0
  %3 = tail call ptr @CRYPTO_THREAD_get_local(ptr noundef nonnull @destructor_key) #2
  %4 = tail call i32 @CRYPTO_THREAD_set_local(ptr noundef nonnull @destructor_key, ptr noundef null) #2
  %5 = icmp eq ptr %3, null
  br i1 %5, label %init_thread_stop.exit, label %6

6:                                                ; preds = %2
  %7 = tail call i32 @CRYPTO_THREAD_run_once(ptr noundef nonnull @tevent_register_runonce, ptr noundef nonnull @create_global_tevent_register_ossl_) #2
  %8 = icmp eq i32 %7, 0
  %9 = load i32, ptr @create_global_tevent_register_ossl_ret_, align 4
  %10 = icmp eq i32 %9, 0
  %or.cond.i.not.i = select i1 %8, i1 true, i1 %10
  %11 = load ptr, ptr @glob_tevent_reg, align 8
  %12 = icmp eq ptr %11, null
  %13 = select i1 %or.cond.i.not.i, i1 true, i1 %12
  br i1 %13, label %init_thread_stop.exit, label %14

14:                                               ; preds = %6
  %15 = getelementptr inbounds nuw i8, ptr %11, i64 8
  %16 = load ptr, ptr %15, align 8, !tbaa !3
  %17 = tail call i32 @CRYPTO_THREAD_write_lock(ptr noundef %16) #2
  %.not.i = icmp eq i32 %17, 0
  br i1 %.not.i, label %init_thread_stop.exit, label %18

18:                                               ; preds = %14
  %19 = load ptr, ptr %3, align 8, !tbaa !9
  %.not253144.i = icmp eq ptr %19, null
  br i1 %.not253144.i, label %.outer._crit_edge.i, label %.lr.ph.split.us.split.us.i

.lr.ph.split.us.split.us.i:                       ; preds = %18, %.lr.ph.split.us.split.us.i
  %.032.us.us.i = phi ptr [ %25, %.lr.ph.split.us.split.us.i ], [ %19, %18 ]
  %20 = getelementptr inbounds nuw i8, ptr %.032.us.us.i, i64 16
  %21 = load ptr, ptr %20, align 8, !tbaa !11
  %22 = getelementptr inbounds nuw i8, ptr %.032.us.us.i, i64 8
  %23 = load ptr, ptr %22, align 8, !tbaa !13
  tail call void %21(ptr noundef %23) #2
  %24 = getelementptr inbounds nuw i8, ptr %.032.us.us.i, i64 24
  %25 = load ptr, ptr %24, align 8, !tbaa !14
  store ptr %25, ptr %3, align 8, !tbaa !9
  tail call void @CRYPTO_free(ptr noundef nonnull %.032.us.us.i, ptr noundef nonnull @.str, i32 noundef 360) #2
  %.not25.us.us.i = icmp eq ptr %25, null
  br i1 %.not25.us.us.i, label %.outer._crit_edge.i, label %.lr.ph.split.us.split.us.i, !llvm.loop !15

.outer._crit_edge.i:                              ; preds = %.lr.ph.split.us.split.us.i, %18
  %26 = load ptr, ptr %15, align 8, !tbaa !3
  %27 = tail call i32 @CRYPTO_THREAD_unlock(ptr noundef %26) #2
  br label %init_thread_stop.exit

init_thread_stop.exit:                            ; preds = %2, %6, %14, %.outer._crit_edge.i
  tail call fastcc void @init_thread_remove_handlers(ptr noundef %3)
  tail call void @CRYPTO_free(ptr noundef %3, ptr noundef nonnull @.str, i32 noundef 237) #2
  br label %28

28:                                               ; preds = %init_thread_stop.exit, %0
  ret void
}